; Function Attrs: mustprogress uwtable
define hidden void @_ZN6google8protobuf2io24ConcatenatingInputStream6BackUpEi(ptr noundef nonnull readonly align 8 captures(none) dereferenceable(32) %0, i32 noundef %1) unnamed_addr #3 align 2 personality ptr @__gxx_personality_v0 {
  %3 = alloca %"class.google::protobuf::internal::LogMessage", align 8
  %4 = alloca %"class.google::protobuf::internal::LogFinisher", align 1
  %5 = getelementptr inbounds nuw i8, ptr %0, i64 16
  %6 = load i32, ptr %5, align 8, !tbaa !54
  %7 = icmp sgt i32 %6, 0
  br i1 %7, label %8, label %15

8:                                                ; preds = %2
  %9 = getelementptr inbounds nuw i8, ptr %0, i64 8
  %10 = load ptr, ptr %9, align 8, !tbaa !49
  %11 = load ptr, ptr %10, align 8, !tbaa !56
  %12 = load ptr, ptr %11, align 8, !tbaa !3
  %13 = getelementptr inbounds nuw i8, ptr %12, i64 24
  %14 = load ptr, ptr %13, align 8
  tail call void %14(ptr noundef nonnull align 8 dereferenceable(8) %11, i32 noundef %1)
  br label %24

15:                                               ; preds = %2
  call void @llvm.lifetime.start.p0(i64 56, ptr nonnull %3) #15
  call void @_ZN6google8protobuf8internal10LogMessageC1ENS0_8LogLevelEPKci(ptr noundef nonnull align 8 dereferenceable(56) %3, i32 noundef 2, ptr noundef nonnull @.str, i32 noundef 333)
  %16 = invoke noundef nonnull align 8 dereferenceable(56) ptr @_ZN6google8protobuf8internal10LogMessagelsEPKc(ptr noundef nonnull align 8 dereferenceable(56) %3, ptr noundef nonnull @.str.3)
          to label %17 unwind label %19

17:                                               ; preds = %15
  call void @llvm.lifetime.start.p0(i64 1, ptr nonnull %4) #15
  invoke void @_ZN6google8protobuf8internal11LogFinisheraSERNS1_10LogMessageE(ptr noundef nonnull align 1 dereferenceable(1) %4, ptr noundef nonnull align 8 dereferenceable(56) %16)
          to label %18 unwind label %21

18:                                               ; preds = %17
  call void @llvm.lifetime.end.p0(i64 1, ptr nonnull %4) #15
  call void @_ZN6google8protobuf8internal10LogMessageD1Ev(ptr noundef nonnull align 8 dereferenceable(56) %3) #15
  call void @llvm.lifetime.end.p0(i64 56, ptr nonnull %3) #15
  br label %24

19:                                               ; preds = %15
  %20 = landingpad { ptr, i32 }
          cleanup
  br label %23

21:                                               ; preds = %17
  %22 = landingpad { ptr, i32 }
          cleanup
  call void @llvm.lifetime.end.p0(i64 1, ptr nonnull %4) #15
  br label %23

23:                                               ; preds = %21, %19
  %.pn = phi { ptr, i32 } [ %22, %21 ], [ %20, %19 ]
  call void @_ZN6google8protobuf8internal10LogMessageD1Ev(ptr noundef nonnull align 8 dereferenceable(56) %3) #15
  call void @llvm.lifetime.end.p0(i64 56, ptr nonnull %3) #15
  resume { ptr, i32 } %.pn

24:                                               ; preds = %18, %8
  ret void
}